target datalayout = "e-m:e-p270:32:32-p271:32:32-p272:64:64-i64:64-i128:128-f80:128-n8:16:32:64-S128"
target triple = "x86_64-pc-linux-gnu"

; Function Attrs: inlinehint mustprogress nounwind uwtable
define linkonce_odr hidden noundef ptr @_ZNSt3__122__libcpp_aligned_allocB8ne210000Emm(i64 noundef %0, i64 noundef %1) #2 comdat {
  %3 = alloca i64, align 8
  %4 = alloca i64, align 8
  %5 = alloca i64, align 8
  store i64 %0, ptr %3, align 8, !tbaa !5
  store i64 %1, ptr %4, align 8, !tbaa !5
  call void @llvm.lifetime.start.p0(i64 8, ptr %5) #11
  %6 = load i64, ptr %4, align 8, !tbaa !5
  %7 = load i64, ptr %3, align 8, !tbaa !5
  %8 = add i64 %6, %7
  %9 = sub i64 %8, 1
  %10 = load i64, ptr %3, align 8, !tbaa !5
  %11 = sub i64 %10, 1
  %12 = xor i64 %11, -1
  %13 = and i64 %9, %12
  store i64 %13, ptr %5, align 8, !tbaa !5
  %14 = load i64, ptr %3, align 8, !tbaa !5
  %15 = load i64, ptr %4, align 8, !tbaa !5
  %16 = load i64, ptr %5, align 8, !tbaa !5
  %17 = icmp ugt i64 %15, %16
  br i1 %17, label %18, label %20

18:                                               ; preds = %2
  %19 = load i64, ptr %4, align 8, !tbaa !5
  br label %22

20:                                               ; preds = %2
  %21 = load i64, ptr %5, align 8, !tbaa !5
  br label %22

22:                                               ; preds = %20, %18
  %23 = phi i64 [ %19, %18 ], [ %21, %20 ]
  %24 = call noalias ptr @aligned_alloc(i64 noundef %14, i64 noundef %23) #12
  call void @llvm.assume(i1 true) [ "align"(ptr %24, i64 %14) ]
  call void @llvm.lifetime.end.p0(i64 8, ptr %5) #11
  ret ptr %24
}

; Function Attrs: mustprogress uwtable
define hidden noundef ptr @_ZN10__cxxabiv130__aligned_malloc_with_fallbackEm(i64 noundef %0) #0 {
  %2 = alloca ptr, align 8
  %3 = alloca i64, align 8
  %4 = alloca ptr, align 8
  %5 = alloca i32, align 4
  store i64 %0, ptr %3, align 8, !tbaa !5
  %6 = load i64, ptr %3, align 8, !tbaa !5
  %7 = icmp eq i64 %6, 0
  br i1 %7, label %8, label %9

8:                                                ; preds = %1
  store i64 1, ptr %3, align 8, !tbaa !5
  br label %9

9:                                                ; preds = %8, %1
  call void @llvm.lifetime.start.p0(i64 8, ptr %4) #11
  %10 = load i64, ptr %3, align 8, !tbaa !5
  %11 = call noundef ptr @_ZNSt3__122__libcpp_aligned_allocB8ne210000Emm(i64 noundef 16, i64 noundef %10)
  store ptr %11, ptr %4, align 8, !tbaa !9
  %12 = load ptr, ptr %4, align 8, !tbaa !9
  %13 = icmp ne ptr %12, null
  br i1 %13, label %14, label %16

14:                                               ; preds = %9
  %15 = load ptr, ptr %4, align 8, !tbaa !9
  store ptr %15, ptr %2, align 8
  store i32 1, ptr %5, align 4
  br label %17

16:                                               ; preds = %9
  store i32 0, ptr %5, align 4
  br label %17

17:                                               ; preds = %16, %14
  call void @llvm.lifetime.end.p0(i64 8, ptr %4) #11
  %18 = load i32, ptr %5, align 4
  switch i32 %18, label %24 [
    i32 0, label %19
    i32 1, label %22
  ]

19:                                               ; preds = %17
  %20 = load i64, ptr %3, align 8, !tbaa !5
  %21 = call noundef ptr @_ZN12_GLOBAL__N_115fallback_mallocEm(i64 noundef %20)
  store ptr %21, ptr %2, align 8
  br label %22

22:                                               ; preds = %19, %17
  %23 = load ptr, ptr %2, align 8
  ret ptr %23

24:                                               ; preds = %17
  unreachable
}