; Function Attrs: mustprogress uwtable
define hidden noundef ptr @_ZN10__cxxabiv130__aligned_malloc_with_fallbackEm(i64 noundef %0) local_unnamed_addr #0 {
  %spec.store.select = tail call i64 @llvm.umax.i64(i64 %0, i64 1)
  %2 = add i64 %spec.store.select, 15
  %3 = and i64 %2, -16
  %4 = tail call i64 @llvm.umax.i64(i64 %spec.store.select, i64 %3)
  %5 = tail call noalias noundef align 16 ptr @aligned_alloc(i64 noundef 16, i64 noundef %4) #10
  call void @llvm.assume(i1 true) [ "align"(ptr %5, i64 16) ]
  %.not.not = icmp eq ptr %5, null
  br i1 %.not.not, label %6, label %8

6:                                                ; preds = %1
  %7 = tail call fastcc noundef ptr @_ZN12_GLOBAL__N_115fallback_mallocEm(i64 noundef %spec.store.select)
  br label %8

8:                                                ; preds = %1, %6
  %.1 = phi ptr [ %5, %1 ], [ %7, %6 ]
  ret ptr %.1
}